; ModuleID = 'source-C-CXX/4/947.c'
source_filename = "source-C-CXX/4/947.c"
target datalayout = "e-m:e-p270:32:32-p271:32:32-p272:64:64-i64:64-f80:128-n8:16:32:64-S128"
target triple = "x86_64-pc-linux-gnu"

@.str = private unnamed_addr constant [4 x i8] c"%lf\00", align 1
@.str.1 = private unnamed_addr constant [3 x i8] c"%s\00", align 1
@.str.2 = private unnamed_addr constant [6 x i8] c"error\00", align 1
@.str.3 = private unnamed_addr constant [4 x i8] c"yes\00", align 1
@.str.4 = private unnamed_addr constant [3 x i8] c"no\00", align 1

; Function Attrs: nofree nounwind sspstrong uwtable
define dso_local i32 @main() local_unnamed_addr #0 {
  %1 = alloca double, align 8
  %2 = alloca [10000 x i8], align 16
  %3 = alloca [100000 x i8], align 16
  %4 = bitcast double* %1 to i8*
  call void @llvm.lifetime.start.p0i8(i64 8, i8* nonnull %4) #4
  %5 = getelementptr inbounds [10000 x i8], [10000 x i8]* %2, i64 0, i64 0
  call void @llvm.lifetime.start.p0i8(i64 10000, i8* nonnull %5) #4
  %6 = getelementptr inbounds [100000 x i8], [100000 x i8]* %3, i64 0, i64 0
  call void @llvm.lifetime.start.p0i8(i64 100000, i8* nonnull %6) #4
  %7 = call i32 (i8*, ...) @__isoc99_scanf(i8* getelementptr inbounds ([4 x i8], [4 x i8]* @.str, i64 0, i64 0), double* nonnull %1)
  %8 = call i32 (i8*, ...) @__isoc99_scanf(i8* getelementptr inbounds ([3 x i8], [3 x i8]* @.str.1, i64 0, i64 0), i8* nonnull %5)
  %9 = call i32 (i8*, ...) @__isoc99_scanf(i8* getelementptr inbounds ([3 x i8], [3 x i8]* @.str.1, i64 0, i64 0), i8* nonnull %6)
  %10 = call i64 @strlen(i8* noundef nonnull %5) #5
  %11 = trunc i64 %10 to i32
  %12 = add i64 %10, 4294967295
  %13 = sitofp i32 %11 to double
  %14 = icmp sgt i32 %11, 0
  br i1 %14, label %15, label %47

15:                                               ; preds = %0
  %16 = call i64 @strlen(i8* noundef nonnull %6) #5
  %17 = trunc i64 %16 to i32
  %18 = icmp eq i32 %17, %11
  br i1 %18, label %19, label %45

19:                                               ; preds = %15
  %20 = and i64 %12, 4294967295
  %21 = and i64 %10, 4294967295
  br label %22

22:                                               ; preds = %19, %42
  %23 = phi i64 [ 0, %19 ], [ %43, %42 ]
  %24 = phi i32 [ 0, %19 ], [ %33, %42 ]
  %25 = getelementptr inbounds [10000 x i8], [10000 x i8]* %2, i64 0, i64 %23
  %26 = load i8, i8* %25, align 1, !tbaa !5
  switch i8 %26, label %45 [
    i8 65, label %27
    i8 71, label %27
    i8 67, label %27
    i8 84, label %27
  ]

27:                                               ; preds = %22, %22, %22, %22
  %28 = getelementptr inbounds [100000 x i8], [100000 x i8]* %3, i64 0, i64 %23
  %29 = load i8, i8* %28, align 1, !tbaa !5
  switch i8 %29, label %45 [
    i8 65, label %30
    i8 71, label %30
    i8 67, label %30
    i8 84, label %30
  ]

30:                                               ; preds = %27, %27, %27, %27
  %31 = icmp eq i8 %26, %29
  %32 = zext i1 %31 to i32
  %33 = add nuw nsw i32 %24, %32
  %34 = icmp eq i64 %23, %20
  br i1 %34, label %35, label %42

35:                                               ; preds = %30
  %36 = sitofp i32 %33 to double
  %37 = fdiv double %36, %13
  %38 = load double, double* %1, align 8, !tbaa !8
  %39 = fcmp ult double %37, %38
  %40 = select i1 %39, i8* getelementptr inbounds ([3 x i8], [3 x i8]* @.str.4, i64 0, i64 0), i8* getelementptr inbounds ([4 x i8], [4 x i8]* @.str.3, i64 0, i64 0)
  %41 = call i32 (i8*, ...) @printf(i8* nonnull dereferenceable(1) %40)
  br label %42

42:                                               ; preds = %35, %30
  %43 = add nuw nsw i64 %23, 1
  %44 = icmp eq i64 %43, %21
  br i1 %44, label %47, label %22, !llvm.loop !10

45:                                               ; preds = %27, %22, %15
  %46 = call i32 (i8*, ...) @printf(i8* nonnull dereferenceable(1) getelementptr inbounds ([6 x i8], [6 x i8]* @.str.2, i64 0, i64 0))
  br label %47

47:                                               ; preds = %42, %45, %0
  call void @llvm.lifetime.end.p0i8(i64 100000, i8* nonnull %6) #4
  call void @llvm.lifetime.end.p0i8(i64 10000, i8* nonnull %5) #4
  call void @llvm.lifetime.end.p0i8(i64 8, i8* nonnull %4) #4
  ret i32 0
}

; Function Attrs: argmemonly mustprogress nofree nosync nounwind willreturn
declare void @llvm.lifetime.start.p0i8(i64 immarg, i8* nocapture) #1

; Function Attrs: nofree nounwind
declare noundef i32 @__isoc99_scanf(i8* nocapture noundef readonly, ...) local_unnamed_addr #2

; Function Attrs: argmemonly mustprogress nofree nounwind readonly willreturn
declare i64 @strlen(i8* nocapture) local_unnamed_addr #3

; Function Attrs: nofree nounwind
declare noundef i32 @printf(i8* nocapture noundef readonly, ...) local_unnamed_addr #2

; Function Attrs: argmemonly mustprogress nofree nosync nounwind willreturn
declare void @llvm.lifetime.end.p0i8(i64 immarg, i8* nocapture) #1


!llvm.module.flags = !{!0, !1, !2, !3}
!llvm.ident = !{!4}

!0 = !{i32 1, !"wchar_size", i32 4}
!1 = !{i32 7, !"PIC Level", i32 2}
!2 = !{i32 7, !"PIE Level", i32 2}
!3 = !{i32 7, !"uwtable", i32 1}
!4 = !{!"clang version 13.0.0"}
!5 = !{!6, !6, i64 0}
!6 = !{!"omnipotent char", !7, i64 0}
!7 = !{!"Simple C/C++ TBAA"}
!8 = !{!9, !9, i64 0}
!9 = !{!"double", !6, i64 0}
!10 = distinct !{!10, !11}
!11 = !{!"llvm.loop.mustprogress"}
